; Function Attrs: nofree norecurse nosync nounwind memory(read, inaccessiblemem: none) uwtable
define i32 @Lf_ObjCoArrival2_rec(ptr noundef readonly captures(none) %0, ptr noundef %1) local_unnamed_addr #0 {
  %.val27 = load i64, ptr %1, align 4
  %3 = trunc i64 %.val27 to i32
  %4 = and i32 %3, 536870911
  %5 = lshr i64 %.val27, 32
  %6 = trunc nuw i64 %5 to i32
  %7 = and i32 %6, 536870911
  %8 = icmp eq i32 %4, %7
  %.not.i28 = icmp ne i32 %4, 536870911
  %or.cond.not.i29 = and i1 %.not.i28, %8
  %9 = and i64 %.val27, 2147483648
  %.not4.i30 = icmp eq i64 %9, 0
  %narrow.i31 = and i1 %.not4.i30, %or.cond.not.i29
  br i1 %narrow.i31, label %tailrecurse, label %tailrecurse._crit_edge

tailrecurse:                                      ; preds = %2, %tailrecurse
  %.val33 = phi i64 [ %.val, %tailrecurse ], [ %.val27, %2 ]
  %.tr2632 = phi ptr [ %12, %tailrecurse ], [ %1, %2 ]
  %10 = and i64 %.val33, 536870911
  %11 = sub nsw i64 0, %10
  %12 = getelementptr inbounds %struct.Gia_Obj_t_, ptr %.tr2632, i64 %11
  %.val = load i64, ptr %12, align 4
  %13 = trunc i64 %.val to i32
  %14 = and i32 %13, 536870911
  %15 = lshr i64 %.val, 32
  %16 = trunc nuw i64 %15 to i32
  %17 = and i32 %16, 536870911
  %18 = icmp eq i32 %14, %17
  %.not.i = icmp ne i32 %14, 536870911
  %or.cond.not.i = and i1 %.not.i, %18
  %19 = and i64 %.val, 2147483648
  %.not4.i = icmp eq i64 %19, 0
  %narrow.i = and i1 %.not4.i, %or.cond.not.i
  br i1 %narrow.i, label %tailrecurse, label %tailrecurse._crit_edge

tailrecurse._crit_edge:                           ; preds = %tailrecurse, %2
  %.tr26.lcssa = phi ptr [ %1, %2 ], [ %12, %tailrecurse ]
  %.val.lcssa = phi i64 [ %.val27, %2 ], [ %.val, %tailrecurse ]
  %.lcssa = phi i64 [ %5, %2 ], [ %15, %tailrecurse ]
  %.not4.i.lcssa = phi i1 [ %.not4.i30, %2 ], [ %.not4.i, %tailrecurse ]
  %20 = and i64 %.val.lcssa, 536870911
  %21 = icmp ne i64 %20, 536870911
  %narrow.i23 = and i1 %.not4.i.lcssa, %21
  br i1 %narrow.i23, label %22, label %46

22:                                               ; preds = %tailrecurse._crit_edge
  %23 = load ptr, ptr %0, align 8, !tbaa !3
  %24 = getelementptr i8, ptr %23, i64 32
  %.val16 = load ptr, ptr %24, align 8, !tbaa !22
  %25 = ptrtoint ptr %.tr26.lcssa to i64
  %26 = ptrtoint ptr %.val16 to i64
  %27 = sub i64 %25, %26
  %28 = sdiv exact i64 %27, 12
  %29 = getelementptr i8, ptr %0, i64 24
  %.val17 = load ptr, ptr %29, align 8, !tbaa !38
  %30 = getelementptr i8, ptr %0, i64 176
  %.val18 = load ptr, ptr %30, align 8, !tbaa !39
  %sext = shl i64 %28, 32
  %31 = ashr exact i64 %sext, 30
  %32 = getelementptr inbounds i8, ptr %.val18, i64 %31
  %33 = load i32, ptr %32, align 4, !tbaa !40
  %34 = sext i32 %33 to i64
  %35 = getelementptr inbounds %struct.Lf_Bst_t_, ptr %.val17, i64 %34
  %36 = getelementptr inbounds nuw i8, ptr %35, i64 24
  %37 = load i32, ptr %36, align 4
  %38 = and i32 %37, 1
  %.not.i24 = icmp eq i32 %38, 0
  br i1 %.not.i24, label %39, label %Lf_BestCutIndex.exit

39:                                               ; preds = %22
  %40 = getelementptr inbounds nuw i8, ptr %35, i64 28
  %41 = load i32, ptr %40, align 4
  %42 = and i32 %41, 1
  %..i = sub nuw nsw i32 2, %42
  %43 = zext nneg i32 %..i to i64
  br label %Lf_BestCutIndex.exit

Lf_BestCutIndex.exit:                             ; preds = %22, %39
  %.0.i = phi i64 [ 0, %22 ], [ %43, %39 ]
  %44 = getelementptr inbounds nuw [3 x i32], ptr %35, i64 0, i64 %.0.i
  %45 = load i32, ptr %44, align 4, !tbaa !40
  br label %53

46:                                               ; preds = %tailrecurse._crit_edge
  %47 = and i64 %.val.lcssa, 2684354559
  %narrow.i25.not = icmp eq i64 %47, 2684354559
  br i1 %narrow.i25.not, label %48, label %53

48:                                               ; preds = %46
  %49 = getelementptr i8, ptr %0, i64 272
  %.val21 = load ptr, ptr %49, align 8, !tbaa !39
  %50 = and i64 %.lcssa, 536870911
  %51 = getelementptr inbounds nuw i32, ptr %.val21, i64 %50
  %52 = load i32, ptr %51, align 4, !tbaa !40
  br label %53

53:                                               ; preds = %46, %48, %Lf_BestCutIndex.exit
  %.0 = phi i32 [ %45, %Lf_BestCutIndex.exit ], [ %52, %48 ], [ 0, %46 ]
  ret i32 %.0
}